(lp0
(lp1
S"Ted Cruz's Mom Listed As Eligible To Vote In Canada on Recently-Surfaced Document #VoteTrump https://t.co/GGkMmUUQ8l via @mediaite"
p2
aS'positive'
p3
aa(lp4
S'Ted Cruz: Cruising the Political Toilet https://t.co/8oMwVDSxuO NO ONE LIKES TED! #TRUMP2016 FOR PRESIDENT @realDonaldTrump'
p5
ag3
aa(lp6
S'#TRUMP2016 Ted Cruz attacked Donald Trump AND New York City. https://t.co/3GBEaomJ0n https://t.co/wXX4XfKkba'
p7
ag3
aa(lp8
S"Ted Cruz Sparks #Trumpertantrum Twitter Trend Following Donald Trump's I.. Related Articles: https://t.co/OXxOq8nCZ5"
p9
aS'negative'
p10
aa(lp11
S'RT @guardian: Trump throws a tantrum over Iowa https://t.co/LwRI5Wh3ip #Trumpertantrum https://t.co/B5ruO8A3yw'
p12
ag10
aa(lp13
S'RT @Andy: Ted Cruz seems like a complete lunatic but BRAVO on coining the term #Trumpertantrum !!!!'
p14
ag10
aa(lp15
S"Ted Cruz responded to Donald J  Trump's tweets challenging the Iowa results #Trumpertantrum  https://t.co/P5HAydqLKy"
p16
ag10
aa(lp17
S"Sen. Mike Lee To Donald Trump: 'Ted Cruz Is My Friend' - Breitbart https://t.co/4xOQxjlM0x via BreitbartNews | Insults r his #Trumpertantrum"
p18
ag10
aa(lp19
S"Ted Cruz Sparks #Trumpertantrum Twitter Trend Following Donald Trump's I.. Related Articles: https://t.co/OXxOq8nCZ5 https://t.co/55WmIITLDX"
p20
ag10
aa(lp21
S'RT @KeepPromise1: Ted Cruz: Donald Is Throwing a #Trumpertantrum https://t.co/LSzmhzBXg0 via @nbcnews'
p22
ag10
aa(lp23
S"RT @seanhoward1985: Ted Cruz responded to Donald J  Trump's tweets challenging the Iowa results #Trumpertantrum  https://t.co/P5HAydqLKy"
p24
ag10
aa(lp25
S"RT @JLovesTrump: A #Trumpertantrum is when Donald Trump is disgusted like the rest of America about Ted Cruz's voter fraud in Iowa."
p26
ag10
aa(lp27
S"A #Trumpertantrum is when Donald Trump is disgusted like the rest of America about Ted Cruz's voter fraud in Iowa."
p28
ag10
aa(lp29
S'Sen. Ted Cruz (R-Texas) accused former GOP front-runner Donald Trump of throwing a #Trumpertantrum&amp;#160;for&amp;#160;demanding a new caucus in'
p30
ag10
aa(lp31
S'Ron Paul: Ted Cruz Not a Libertarian, He\'s Owned by Goldman Sachs\n\n https://t.co/VOtmyPinxq \nhttps://t.co/HbTmhZ4IFo"\n\n#Trumpertantrum'
p32
ag10
aa(lp33
S"Donald Trump's poll numbers took a nosedive in the first national survey after Iowa https://t.co/hHOEbV1tyt #ROIMentor"
p34
ag10
aa(lp35
S"Here's why Donald Trump suffered a stunning Iowa upset when the polls suggested he'd win https://t.co/4TRvqPSBXB #ROIMentor"
p36
ag10
aa(lp37
S'realDonaldTrump #Trump2016  https://t.co/CNCYQ5xO7F https://t.co/sNqhiiIl3L https://t.co/ucxcuD80X9'
p38
aS'positive'
p39
aa(lp40
S"Be careful Ben. You're a nice guy and Ted Cruz is a snake. #Trump2016  https://t.co/4Z65S76gZo"
p41
ag39
aa(lp42
S'RT @GOPAlert2016: Cruz for Canadian Prime Minister in 2016. Ted go back to your homeland, they need you! #Trump2016 https://t.co/TwpvxLoWwA'
p43
ag39
aa(lp44
S'WTF?! Ted Cruz is Hispanic, Italian, Cuban and more -- No wonder he wont close the border! https://t.co/kubDn6jaoh #Trump2016'
p45
ag39
aa(lp46
S'@1776_Liberty_ Idiot @Ted Cruz Wants 2DOUBLE Immigration and increase Foreign worker replacements 5 fold https://t.co/Oa6HQ8Qo1D  #Trump2016'
p47
ag39
aa(lp48
S"https://t.co/kTnKgH4BAW Rodger Stone: Ted's Banker wife Heidi Cruz worked on China Trade deal cause of US huge trade deficit. #Trump2016"
p49
ag39
aa(lp50
S"Marco Rubio &amp; Ted Cruz  'I always tell the truth, even when I lie' @PhyllisSchlafly @SarahPalinUSA #Trump2016  https://t.co/ipLZW49pLr"
p51
ag39
aa(lp52
S'@DanScavino get in front of this white nationalist robo  calling in NH  .Ted Cruz dirty tricks !! #Trump2016'
p53
ag39
aa(lp54
S'RT KevMcD7: NROcorner Cruz is a total liar and Marco is another Obama. #Trump2016 https://t.co/sNqhiiIl3L https://t.co/ucxcuD80X9'
p55
ag39
aa(lp56
S'I follow his roommate, Crude nickname was "Dick"  "Telegenic as undertaker" #Trump2016 \n\n  https://t.co/BOupwBo4PU(Share from CM Browser)'
p57
ag39
aa(lp58
S'Make Barbers Pole Great Again #Trump2016 https://t.co/sNqhiiIl3L https://t.co/ucxcuD80X9'
p59
ag39
aa(lp60
S'dbongino #Trump2016 https://t.co/sNqhiiIl3L https://t.co/ucxcuD80X9'
p61
ag39
aa(lp62
S'RT @LindaSuhler: Gov Huckabee on how often Ted Cruz has changed his positions...\nhttps://t.co/ng6nJJH8LG\n#Trump2016 https://t.co/F5E9YcsLIv'
p63
ag39
aa(lp64
S'Make Sharp Shi Great Again #Trump2016 https://t.co/sNqhiiIl3L https://t.co/ucxcuD80X9'
p65
ag39
aa(lp66
S'Make Archeoptery Great Again #Trump2016 https://t.co/sNqhiiIl3L https://t.co/ucxcuD80X9'
p67
ag39
aa(lp68
S'RT @RaymondB__: realDonaldTrump #Trump2016  https://t.co/CNCYQ5xO7F https://t.co/sNqhiiIl3L https://t.co/ucxcuD80X9'
p69
ag39
aa(lp70
S'By Hook or crook: Describes Ted Cruz to a Tee. #Trump2016  https://t.co/De3AyGpiPr'
p71
ag39
aa(lp72
S'#Trump2016  URGENT!!!  Big News! Ted Cruz....   https://t.co/tFMI5czOIK'
p73
ag39
aa(lp74
S'Sen Ted Cruz Wants to DOUBLE Immigration and increase Foreign worker replacements 5 fold https://t.co/64QZvgICMt #Trump2016'
p75
ag39
aa(lp76
S'I hope someone does this to Ted Cruz. Lol #Trump2016 https://t.co/9eFZ2vFshN'
p77
ag39
aa(lp78
S'.@tedcruz Still Struggling to answer questions about trickery convincing Iowans that Ben Carson Quit. #Trump2016  https://t.co/9XXdIbIXmQ'
p79
ag39
aa(lp80
S'It Was The Worst Thing Anyone Ever Said To Me | Princeton classmate Mikaela Beardsley remembers Ted Cruz  #Trump2016 https://t.co/AU0vTmksTK'
p81
ag39
aa(lp82
S'If you want another President that will abuse Executive Actions and not able to work with others in D.C. then vote Ted Cruz #Trump2016'
p83
ag39
aa(lp84
S'RT @Red_Neckwork: Jimmy Carter: I would choose Donald Trump over Ted Cruz https://t.co/HxBAvSGyuR\n#Trump2016 https://t.co/bVDpgRROHE'
p85
ag39
aa(lp86
S'@Janetlarose1 @DavidADemarest @realDonaldTrump - But Trump said he didn\'t "care about that anymore." See: https://t.co/YsA92LdB7R #Trump2016'
p87
ag39
aa(lp88
S'RT @RogerJStoneJr: Who is the real Ted Cruz ? https://t.co/d7tKBXNSkI #Trump2016 https://t.co/DWPcWoW1Eh'
p89
ag39
aa(lp90
S'@realDonaldTrump Many S.C. voters know how dishonest Ted Cruz is. #Trump2016'
p91
ag39
aa(lp92
S'Make Articulated Hauler Great Again #Trump2016 https://t.co/sNqhiiIl3L https://t.co/ucxcuD80X9'
p93
ag39
aa(lp94
S"Do you support Ted Cruz? This video convinces me that he is a phony politician. I don't trust him! #Trump2016 https://t.co/t00d0uN8tC"
p95
ag39
aa(lp96
S'RT @lulujoy6101: https://t.co/92wRthnoVo Ted Cruz, Marco Rubio and Bobby Jindal are NOT eligible to run for President. #Trump2016'
p97
ag39
aa(lp98
S'Latest Trump TV ad +Ted Cruz is the Devil #Trump2016 https://t.co/9roKbIk42h'
p99
ag39
aa(lp100
S'@Carledavis1967 So if U replace "Ted Cruz" with "Donald Trump" does that also tell YOU @realdonaldtrump is doing something RIGHT? #Trump2016'
p101
ag39
aa(lp102
S"The Edmonton oilers from Alberta Canada just endorses Ted Cruz. He will do good today it's hockey day in Canada #MakeAmericaGreatAgain"
p103
ag39
aa(lp104
S'@seanhannity @RealBenCarson Ted Cruz said you were dropping out I am confused #MakeAmericaGreatAgain'
p105
ag39
aa(lp106
S'Ted Cruz was asked are the cowboys your favorite football team? No the Edmonton Eskimos home town team #MakeAmericaGreatAgain'
p107
ag39
aa(lp108
S'Trust Ted? Cruz Facing Growing Attacks on Credibility https://t.co/rCcVrz1EWI\n\n#MakeAmericaGreatAgain https://t.co/mXuU6UCeDz'
p109
ag39
aa(lp110
S'@mitchellvii @Lrihendry they will be live stream the debate in Alberta Canada for Ted Cruz family #MakeAmericaGreatAgain'
p111
ag39
aa(lp112
S"@USNCTM @ckoivu @COSProject I hope it's Trump as president, Cruz as VP. Ted can take the reigns after we #MakeAmericaGreatAgain."
p113
ag39
aa(lp114
S'The Edmonton oilers from Alberta Canada just endorses Ted Cruz. #MakeAmericaGreatAgain'
p115
ag39
aa(lp116
S'RT @NeilTurner_: Donald Trump knocks out Ted Cruz!\n\n#MakeAmericaGreatAgain https://t.co/UbWd5hGUQ3'
p117
ag39
aa(lp118
S'#TrumpTrain Riders. Boycott @CR completely. On Feb 18th Levin, Hannity will endorse Ted Cruz. Block and Boycott @CR https://t.co/zxgaBPwQXS'
p119
ag39
aa(lp120
S'#TrumpTrain Riders. Boycott @CR completely. On Feb 18th Levin/ Hannity will endorse Ted Cruz. Boycott @CR  Please RT https://t.co/ExRTnDuJfG'
p121
ag39
aa(lp122
S'#TrumpTrain Riders. Boycott @CR completely. On Feb 18th Levin, Hannity will endorse Ted Cruz. Boycott @CR  Please RT https://t.co/uzgdJGT087'
p123
ag39
aa(lp124
S'#TrumpTrain Riders. Boycott @CR completely. On Feb 18th Levin, Hannity will endorse Ted Cruz. Boycott @CR .. https://t.co/FuTTJLkhiq'
p125
ag39
aa(lp126
S'#TrumpTrain Is it just me or does Ted Cruz have bad gas? https://t.co/p3wgHRGtbS'
p127
ag39
aa(lp128
S'#TrumpTrain Riders. Boycott @CR completely. On Feb 18th Levin, Hannity will endorse Ted Cruz. Boycott @CR  Please RT https://t.co/IGal3tiVqD'
p129
ag39
aa(lp130
S'#TrumpTrain Riders. Boycott @CR completely. On Feb 18th Levin, Hannity will endorse Ted Cruz. Boycott @CR . https://t.co/uBKQeQhCQQ'
p131
ag39
aa(lp132
S'RT @TuringEmail: Ted Cruz Calls "Socialized Medicine" A "Complete Disaster" https://t.co/SDDib9WC6B #business https://t.co/UIGjpjs9sT'
p133
aS'negative'
p134
aa(lp135
S"businessinsider: Donald Trump's poll numbers took a nosedive in the first national survey after Iowa https://t.co/Y5ozTw8fnL #business"
p136
ag134
aa(lp137
S"Here's why Donald Trump suffered a stunning Iowa upset when the polls suggested he'd win https://t.co/aOx8NCxMH2 #business"
p138
ag134
aa(lp139
S"Donald Trump's poll numbers took a nosedive in the first national survey after Iowa https://t.co/nEMgReW5eY #business"
p140
ag134
aa(lp141
S"RT @thebizco: Donald Trump's poll numbers took a nosedive in the first national survey after Iowa https://t.co/nEMgReW5eY #business"
p142
ag134
aa(lp143
S"businessinsider: Here's why Donald Trump suffered a stunning Iowa upset when the polls suggested he'd win https://t.co/w60LM8Y5WC #business"
p144
ag134
aa(lp145
S'@realDonaldTrump disgusting what Ted Cruz did to you and Carson in Iowa, you will win NH and the debate #MAKEAMERICAGREATAGAIN'
p146
ag39
aa(lp147
S"@realDonaldTrump I'm a Ted Cruz guy but I'm willing to vote for Trump because of this one issue. #MAKEAMERICAGREATAGAIN"
p148
ag39
aa(lp149
S"@realDonaldTrump If securities were sold in Iowa with a letter like Ted Cruz' someone would go to Jail! #MAKEAMERICAGREATAGAIN"
p150
ag39
aa(lp151
S"RT @DougKirkland1: @realDonaldTrump I'm a Ted Cruz guy but I'm willing to vote for Trump because of this one issue. #MAKEAMERICAGREATAGAIN"
p152
ag39
aa(lp153
S'@joehos18 #DonaldTrump Accuses Ted Cruz for Stealing Iowa in His Caucus Victory\nhttps://t.co/UgyxzuDn2h via aol https://t.co/xZ099hj58O'
p154
ag39
aa(lp155
S'#DonaldTrump, @marcorubio enter @GOP debate as targets as N.H. primary nears https://t.co/C5Fkmqg45X via @djusatoday https://t.co/PBn2LUKTld'
p156
ag39
aa(lp157
S'Ted Cruz Sets His Sights on Marco Rubio, Not Donald Trump, in New Hampshire https://t.co/ZHEwzlsLTk #DonaldTrump'
p158
ag39
aa(lp159
S'#trumpdump Hillary Clinton And Ted Cruz Go To The Olive Garden With Satan. Your ... https://t.co/DOBJlXISpJ https://t.co/ZzpQ6nnZ8t'
p160
ag134
aa(lp161
S'#trumpdump Washington Post Columnist Accuses Ted Cruz Of Using "Anti-Semitic Dog... https://t.co/rWskdHO5UR https://t.co/uheuv3ZvD7'
p162
ag134
aa(lp163
S'Donald Trump is calling for new elections in Iowa, accusing Ted Cruz of fraud. #DeterminedToWin'
p164
ag134
aa(lp165
S'RT @choncarino: Donald Trump is calling for new elections in Iowa, accusing Ted Cruz of fraud. #DeterminedToWin'
p166
ag134
aa.