(lp0
(lp1
VHillary+Media WiLL CRUCIFY #DonaldTrump 4BeingTax Cheat:HeCan't Win GeneralElection #FloridaPrimary #GOPDebate #Rino https://t.co/m8u7gkruCW
p2
aS'negative'
p3
aa(lp4
VBring it for Trump Chicago Police!!! https://t.co/h6tJQJpwYK
p5
aS'positive'
p6
aa(lp7
VKasich has not a hope in hell for the nom. The math doesnt add up for him ! Dont waste delegates in Ohio. Vote Trump https://t.co/IRMvSq2PBx
p8
ag6
aa(lp9
V@realDonaldTrump hahaha. You won't beat Hillary
p10
aS'negative'
p11
aa(lp12
V#jobs #jobsearch # #Clinton, Trump move closer to White House nominations:  \u000a           #Cleveland (AFP) - Hil... https://t.co/pac9mtNZF0
p13
ag6
aa(lp14
VTrump is no flash-in-the-pan. More like ISIS. Pot boiling, establishment dropping magnesium https://t.co/zECpPnMApo https://t.co/fgcVjI9hOU
p15
ag11
aa(lp16
VRT @StatesPoll: TRUMP gonna win Colorado easily vs Hillary(March 2016)\u000aMy Analysis Post: https://t.co/tSpbmLTc3o\u000a#Trump2016 #TrumpTrain #Vo\u2026
p17
ag6
aa(lp18
VAhhh, because Trump supporters forget what country they're in, they have to keep yelling it. Got it! https://t.co/QewgHd5kXk
p19
ag11
aa(lp20
VCruz supporters say Trump can't beat Hillary. If that's true... Why is Cruz dwn 1+ million votes to Trump? @kayleighmcenany @FreeStateYank
p21
ag6
aa.